; ModuleID = '15/217.c'
source_filename = "15/217.c"
target datalayout = "e-m:e-p270:32:32-p271:32:32-p272:64:64-i64:64-f80:128-n8:16:32:64-S128"
target triple = "x86_64-pc-linux-gnu"

@.str = private unnamed_addr constant [3 x i8] c"%d\00", align 1

; Function Attrs: noinline nounwind uwtable
define dso_local i32 @main(i32 %0, i8** %1) #0 {
  %3 = alloca i32, align 4
  %4 = alloca i32, align 4
  %5 = alloca i8**, align 8
  %6 = alloca i32, align 4
  %7 = alloca i32, align 4
  %8 = alloca i32, align 4
  %9 = alloca i32, align 4
  %10 = alloca i32, align 4
  %11 = alloca i32, align 4
  %12 = alloca [100 x [100 x i32]], align 16
  store i32 0, i32* %3, align 4
  store i32 %0, i32* %4, align 4
  store i8** %1, i8*** %5, align 8
  store i32 0, i32* %9, align 4
  store i32 0, i32* %10, align 4
  %13 = call i32 (i8*, ...) @__isoc99_scanf(i8* getelementptr inbounds ([3 x i8], [3 x i8]* @.str, i64 0, i64 0), i32* %6)
  store i32 0, i32* %7, align 4
  br label %14

14:                                               ; preds = %35, %2
  %15 = load i32, i32* %7, align 4
  %16 = load i32, i32* %6, align 4
  %17 = icmp slt i32 %15, %16
  br i1 %17, label %18, label %38

18:                                               ; preds = %14
  store i32 0, i32* %8, align 4
  br label %19

19:                                               ; preds = %31, %18
  %20 = load i32, i32* %8, align 4
  %21 = load i32, i32* %6, align 4
  %22 = icmp slt i32 %20, %21
  br i1 %22, label %23, label %34

23:                                               ; preds = %19
  %24 = load i32, i32* %7, align 4
  %25 = sext i32 %24 to i64
  %26 = getelementptr inbounds [100 x [100 x i32]], [100 x [100 x i32]]* %12, i64 0, i64 %25
  %27 = load i32, i32* %8, align 4
  %28 = sext i32 %27 to i64
  %29 = getelementptr inbounds [100 x i32], [100 x i32]* %26, i64 0, i64 %28
  %30 = call i32 (i8*, ...) @__isoc99_scanf(i8* getelementptr inbounds ([3 x i8], [3 x i8]* @.str, i64 0, i64 0), i32* %29)
  br label %31

31:                                               ; preds = %23
  %32 = load i32, i32* %8, align 4
  %33 = add nsw i32 %32, 1
  store i32 %33, i32* %8, align 4
  br label %19

34:                                               ; preds = %19
  br label %35

35:                                               ; preds = %34
  %36 = load i32, i32* %7, align 4
  %37 = add nsw i32 %36, 1
  store i32 %37, i32* %7, align 4
  br label %14

38:                                               ; preds = %14
  store i32 1, i32* %7, align 4
  br label %39

39:                                               ; preds = %75, %38
  %40 = load i32, i32* %7, align 4
  %41 = load i32, i32* %6, align 4
  %42 = icmp slt i32 %40, %41
  br i1 %42, label %43, label %78

43:                                               ; preds = %39
  store i32 0, i32* %8, align 4
  br label %44

44:                                               ; preds = %71, %43
  %45 = load i32, i32* %8, align 4
  %46 = load i32, i32* %6, align 4
  %47 = icmp slt i32 %45, %46
  br i1 %47, label %48, label %74

48:                                               ; preds = %44
  %49 = load i32, i32* %7, align 4
  %50 = sext i32 %49 to i64
  %51 = getelementptr inbounds [100 x [100 x i32]], [100 x [100 x i32]]* %12, i64 0, i64 %50
  %52 = load i32, i32* %8, align 4
  %53 = sext i32 %52 to i64
  %54 = getelementptr inbounds [100 x i32], [100 x i32]* %51, i64 0, i64 %53
  %55 = load i32, i32* %54, align 4
  %56 = icmp eq i32 %55, 0
  br i1 %56, label %57, label %70

57:                                               ; preds = %48
  %58 = load i32, i32* %7, align 4
  %59 = sub nsw i32 %58, 1
  %60 = sext i32 %59 to i64
  %61 = getelementptr inbounds [100 x [100 x i32]], [100 x [100 x i32]]* %12, i64 0, i64 %60
  %62 = load i32, i32* %8, align 4
  %63 = sext i32 %62 to i64
  %64 = getelementptr inbounds [100 x i32], [100 x i32]* %61, i64 0, i64 %63
  %65 = load i32, i32* %64, align 4
  %66 = icmp eq i32 %65, 0
  br i1 %66, label %67, label %70

67:                                               ; preds = %57
  %68 = load i32, i32* %10, align 4
  %69 = add nsw i32 %68, 1
  store i32 %69, i32* %10, align 4
  br label %70

70:                                               ; preds = %67, %57, %48
  br label %71

71:                                               ; preds = %70
  %72 = load i32, i32* %8, align 4
  %73 = add nsw i32 %72, 1
  store i32 %73, i32* %8, align 4
  br label %44

74:                                               ; preds = %44
  br label %75

75:                                               ; preds = %74
  %76 = load i32, i32* %7, align 4
  %77 = add nsw i32 %76, 1
  store i32 %77, i32* %7, align 4
  br label %39

78:                                               ; preds = %39
  store i32 1, i32* %8, align 4
  br label %79

79:                                               ; preds = %115, %78
  %80 = load i32, i32* %8, align 4
  %81 = load i32, i32* %6, align 4
  %82 = icmp slt i32 %80, %81
  br i1 %82, label %83, label %118

83:                                               ; preds = %79
  store i32 0, i32* %7, align 4
  br label %84

84:                                               ; preds = %111, %83
  %85 = load i32, i32* %7, align 4
  %86 = load i32, i32* %6, align 4
  %87 = icmp slt i32 %85, %86
  br i1 %87, label %88, label %114

88:                                               ; preds = %84
  %89 = load i32, i32* %7, align 4
  %90 = sext i32 %89 to i64
  %91 = getelementptr inbounds [100 x [100 x i32]], [100 x [100 x i32]]* %12, i64 0, i64 %90
  %92 = load i32, i32* %8, align 4
  %93 = sext i32 %92 to i64
  %94 = getelementptr inbounds [100 x i32], [100 x i32]* %91, i64 0, i64 %93
  %95 = load i32, i32* %94, align 4
  %96 = icmp eq i32 %95, 0
  br i1 %96, label %97, label %110

97:                                               ; preds = %88
  %98 = load i32, i32* %7, align 4
  %99 = sext i32 %98 to i64
  %100 = getelementptr inbounds [100 x [100 x i32]], [100 x [100 x i32]]* %12, i64 0, i64 %99
  %101 = load i32, i32* %8, align 4
  %102 = sub nsw i32 %101, 1
  %103 = sext i32 %102 to i64
  %104 = getelementptr inbounds [100 x i32], [100 x i32]* %100, i64 0, i64 %103
  %105 = load i32, i32* %104, align 4
  %106 = icmp eq i32 %105, 0
  br i1 %106, label %107, label %110

107:                                              ; preds = %97
  %108 = load i32, i32* %9, align 4
  %109 = add nsw i32 %108, 1
  store i32 %109, i32* %9, align 4
  br label %110

110:                                              ; preds = %107, %97, %88
  br label %111

111:                                              ; preds = %110
  %112 = load i32, i32* %7, align 4
  %113 = add nsw i32 %112, 1
  store i32 %113, i32* %7, align 4
  br label %84

114:                                              ; preds = %84
  br label %115

115:                                              ; preds = %114
  %116 = load i32, i32* %8, align 4
  %117 = add nsw i32 %116, 1
  store i32 %117, i32* %8, align 4
  br label %79

118:                                              ; preds = %79
  %119 = load i32, i32* %9, align 4
  %120 = sdiv i32 %119, 2
  %121 = sub nsw i32 %120, 1
  %122 = load i32, i32* %10, align 4
  %123 = sdiv i32 %122, 2
  %124 = sub nsw i32 %123, 1
  %125 = mul nsw i32 %121, %124
  store i32 %125, i32* %11, align 4
  %126 = load i32, i32* %11, align 4
  %127 = call i32 (i8*, ...) @printf(i8* getelementptr inbounds ([3 x i8], [3 x i8]* @.str, i64 0, i64 0), i32 %126)
  ret i32 0
}

declare dso_local i32 @__isoc99_scanf(i8*, ...) #1

declare dso_local i32 @printf(i8*, ...) #1


!llvm.module.flags = !{!0}
!llvm.ident = !{!1}

!0 = !{i32 1, !"wchar_size", i32 4}
!1 = !{!"clang version 10.0.0-4ubuntu1 "}
